target datalayout = "e-m:e-p270:32:32-p271:32:32-p272:64:64-i64:64-i128:128-f80:128-n8:16:32:64-S128"
target triple = "x86_64-pc-linux-gnu"

@simd_support = internal thread_local global i32 -1, align 4

; Function Attrs: nounwind uwtable
define i32 @jsimd_can_quantize() #0 {
  %1 = alloca i32, align 4
  call void @init_simd()
  %2 = call align 4 ptr @llvm.threadlocal.address.p0(ptr align 4 @simd_support)
  %3 = load i32, ptr %2, align 4, !tbaa !3
  %4 = and i32 %3, 128
  %5 = icmp ne i32 %4, 0
  br i1 %5, label %6, label %7

6:                                                ; preds = %0
  store i32 1, ptr %1, align 4
  br label %14

7:                                                ; preds = %0
  %8 = call align 4 ptr @llvm.threadlocal.address.p0(ptr align 4 @simd_support)
  %9 = load i32, ptr %8, align 4, !tbaa !3
  %10 = and i32 %9, 8
  %11 = icmp ne i32 %10, 0
  br i1 %11, label %12, label %13

12:                                               ; preds = %7
  store i32 1, ptr %1, align 4
  br label %14

13:                                               ; preds = %7
  store i32 0, ptr %1, align 4
  br label %14

14:                                               ; preds = %13, %12, %6
  %15 = load i32, ptr %1, align 4
  ret i32 %15
}